target datalayout = "e-m:e-p270:32:32-p271:32:32-p272:64:64-i64:64-i128:128-f80:128-n8:16:32:64-S128"
target triple = "x86_64-unknown-linux-gnu"

%"class.ue2::AsciiComponentClass" = type { %"class.ue2::ComponentClass.base", i32, %"class.ue2::CharReach" }
%"class.ue2::ComponentClass.base" = type <{ %"class.ue2::Component", i8, %"struct.ue2::ParseMode", i8, i32, i8 }>
%"class.ue2::Component" = type { ptr, i32, i32 }
%"struct.ue2::ParseMode" = type { i8, i8, i8, i8, i8, i8 }
%"class.ue2::CharReach" = type { %"class.ue2::bitfield" }
%"class.ue2::bitfield" = type { %"struct.std::array" }
%"struct.std::array" = type { [4 x i64] }

; Function Attrs: mustprogress uwtable
define hidden void @_ZN3ue219AsciiComponentClass13notePositionsERNS_18GlushkovBuildStateE(ptr noundef nonnull align 8 dereferenceable(72) %this, ptr noundef nonnull align 8 dereferenceable(8) %bs) unnamed_addr #0 align 2 {
entry:
  %this.addr = alloca ptr, align 8
  %bs.addr = alloca ptr, align 8
  %builder = alloca ptr, align 8
  store ptr %this, ptr %this.addr, align 8
  store ptr %bs, ptr %bs.addr, align 8
  %this1 = load ptr, ptr %this.addr, align 8
  %0 = load ptr, ptr %bs.addr, align 8
  %vtable = load ptr, ptr %0, align 8
  %vfn = getelementptr inbounds ptr, ptr %vtable, i64 2
  %1 = load ptr, ptr %vfn, align 8
  %call = call noundef nonnull align 8 dereferenceable(8) ptr %1(ptr noundef nonnull align 8 dereferenceable(8) %0)
  store ptr %call, ptr %builder, align 8
  %2 = load ptr, ptr %builder, align 8
  %vtable2 = load ptr, ptr %2, align 8
  %vfn3 = getelementptr inbounds ptr, ptr %vtable2, i64 2
  %3 = load ptr, ptr %vfn3, align 8
  %call4 = call noundef i32 %3(ptr noundef nonnull align 8 dereferenceable(8) %2, i64 noundef 1)
  %position = getelementptr inbounds %"class.ue2::AsciiComponentClass", ptr %this1, i32 0, i32 1
  store i32 %call4, ptr %position, align 8
  %4 = load ptr, ptr %builder, align 8
  %position5 = getelementptr inbounds %"class.ue2::AsciiComponentClass", ptr %this1, i32 0, i32 1
  %5 = load i32, ptr %position5, align 8
  %cr = getelementptr inbounds %"class.ue2::AsciiComponentClass", ptr %this1, i32 0, i32 2
  %vtable6 = load ptr, ptr %4, align 8
  %vfn7 = getelementptr inbounds ptr, ptr %vtable6, i64 9
  %6 = load ptr, ptr %vfn7, align 8
  call void %6(ptr noundef nonnull align 8 dereferenceable(8) %4, i32 noundef %5, ptr noundef nonnull align 8 dereferenceable(32) %cr)
  %7 = load ptr, ptr %builder, align 8
  %position8 = getelementptr inbounds %"class.ue2::AsciiComponentClass", ptr %this1, i32 0, i32 1
  %8 = load i32, ptr %position8, align 8
  %vtable9 = load ptr, ptr %7, align 8
  %vfn10 = getelementptr inbounds ptr, ptr %vtable9, i64 8
  %9 = load ptr, ptr %vfn10, align 8
  call void %9(ptr noundef nonnull align 8 dereferenceable(8) %7, i32 noundef %8, i32 noundef 0)
  %position11 = getelementptr inbounds %"class.ue2::AsciiComponentClass", ptr %this1, i32 0, i32 1
  %10 = load i32, ptr %position11, align 8
  %position12 = getelementptr inbounds %"class.ue2::AsciiComponentClass", ptr %this1, i32 0, i32 1
  %11 = load i32, ptr %position12, align 8
  %add = add i32 %11, 1
  call void @_ZN3ue29Component15recordPosBoundsEjj(ptr noundef nonnull align 8 dereferenceable(16) %this1, i32 noundef %10, i32 noundef %add)
  ret void
}